target datalayout = "e-m:e-p270:32:32-p271:32:32-p272:64:64-i64:64-i128:128-f80:128-n8:16:32:64-S128"
target triple = "x86_64-pc-linux-gnu"

%struct.v3_ext_method = type { i32, i32, ptr, ptr, ptr, ptr, ptr, ptr, ptr, ptr, ptr, ptr, ptr, ptr }
%struct.BIT_STRING_BITNAME_st = type { i32, ptr, ptr }

; Function Attrs: nounwind uwtable
define ptr @i2v_ASN1_BIT_STRING(ptr noundef %0, ptr noundef %1, ptr noundef %2) #1 {
  %4 = alloca ptr, align 8
  %5 = alloca ptr, align 8
  %6 = alloca ptr, align 8
  %7 = alloca ptr, align 8
  store ptr %0, ptr %4, align 8, !tbaa !3
  store ptr %1, ptr %5, align 8, !tbaa !8
  store ptr %2, ptr %6, align 8, !tbaa !10
  call void @llvm.lifetime.start.p0(i64 8, ptr %7) #5
  %8 = load ptr, ptr %4, align 8, !tbaa !3
  %9 = getelementptr inbounds nuw %struct.v3_ext_method, ptr %8, i32 0, i32 13
  %10 = load ptr, ptr %9, align 8, !tbaa !12
  store ptr %10, ptr %7, align 8, !tbaa !15
  br label %11

11:                                               ; preds = %29, %3
  %12 = load ptr, ptr %7, align 8, !tbaa !15
  %13 = getelementptr inbounds nuw %struct.BIT_STRING_BITNAME_st, ptr %12, i32 0, i32 1
  %14 = load ptr, ptr %13, align 8, !tbaa !17
  %15 = icmp ne ptr %14, null
  br i1 %15, label %16, label %32

16:                                               ; preds = %11
  %17 = load ptr, ptr %5, align 8, !tbaa !8
  %18 = load ptr, ptr %7, align 8, !tbaa !15
  %19 = getelementptr inbounds nuw %struct.BIT_STRING_BITNAME_st, ptr %18, i32 0, i32 0
  %20 = load i32, ptr %19, align 8, !tbaa !20
  %21 = call i32 @ASN1_BIT_STRING_get_bit(ptr noundef %17, i32 noundef %20)
  %22 = icmp ne i32 %21, 0
  br i1 %22, label %23, label %28

23:                                               ; preds = %16
  %24 = load ptr, ptr %7, align 8, !tbaa !15
  %25 = getelementptr inbounds nuw %struct.BIT_STRING_BITNAME_st, ptr %24, i32 0, i32 1
  %26 = load ptr, ptr %25, align 8, !tbaa !17
  %27 = call i32 @X509V3_add_value(ptr noundef %26, ptr noundef null, ptr noundef %6)
  br label %28

28:                                               ; preds = %23, %16
  br label %29

29:                                               ; preds = %28
  %30 = load ptr, ptr %7, align 8, !tbaa !15
  %31 = getelementptr inbounds nuw %struct.BIT_STRING_BITNAME_st, ptr %30, i32 1
  store ptr %31, ptr %7, align 8, !tbaa !15
  br label %11, !llvm.loop !21

32:                                               ; preds = %11
  %33 = load ptr, ptr %6, align 8, !tbaa !10
  call void @llvm.lifetime.end.p0(i64 8, ptr %7) #5
  ret ptr %33
}