; Function Attrs: nounwind uwtable
define ptr @i2v_ASN1_BIT_STRING(ptr noundef readonly captures(none) %0, ptr noundef %1, ptr noundef %2) #1 {
  %4 = alloca ptr, align 8
  store ptr %2, ptr %4, align 8, !tbaa !3
  %5 = getelementptr inbounds nuw i8, ptr %0, i64 96
  %6 = load ptr, ptr %5, align 8, !tbaa !8
  %7 = getelementptr inbounds nuw i8, ptr %6, i64 8
  %8 = load ptr, ptr %7, align 8, !tbaa !11
  %.not7 = icmp eq ptr %8, null
  br i1 %.not7, label %._crit_edge, label %.lr.ph

.lr.ph:                                           ; preds = %3, %15
  %9 = phi ptr [ %17, %15 ], [ %7, %3 ]
  %.08 = phi ptr [ %16, %15 ], [ %6, %3 ]
  %10 = load i32, ptr %.08, align 8, !tbaa !14
  %11 = call i32 @ASN1_BIT_STRING_get_bit(ptr noundef %1, i32 noundef %10) #3
  %.not6 = icmp eq i32 %11, 0
  br i1 %.not6, label %15, label %12

12:                                               ; preds = %.lr.ph
  %13 = load ptr, ptr %9, align 8, !tbaa !11
  %14 = call i32 @X509V3_add_value(ptr noundef %13, ptr noundef null, ptr noundef nonnull %4) #3
  br label %15

15:                                               ; preds = %.lr.ph, %12
  %16 = getelementptr inbounds nuw i8, ptr %.08, i64 24
  %17 = getelementptr inbounds nuw i8, ptr %.08, i64 32
  %18 = load ptr, ptr %17, align 8, !tbaa !11
  %.not = icmp eq ptr %18, null
  br i1 %.not, label %._crit_edge.loopexit, label %.lr.ph, !llvm.loop !15

._crit_edge.loopexit:                             ; preds = %15
  %.pre = load ptr, ptr %4, align 8, !tbaa !3
  br label %._crit_edge

._crit_edge:                                      ; preds = %._crit_edge.loopexit, %3
  %19 = phi ptr [ %.pre, %._crit_edge.loopexit ], [ %2, %3 ]
  ret ptr %19
}